target datalayout = "e-m:e-p270:32:32-p271:32:32-p272:64:64-i64:64-i128:128-f80:128-n8:16:32:64-S128"
target triple = "x86_64-pc-linux-gnu"

%struct._zend_executor_globals = type { %struct._zval_struct, %struct._zval_struct, [32 x ptr], ptr, ptr, %struct._zend_array, %struct._zend_array, ptr, i32, i8, %struct._zval_struct, i32, ptr, ptr, ptr, ptr, ptr, ptr, i64, ptr, ptr, i32, ptr, i32, i64, i32, i32, i32, i8, i8, %struct.zend_atomic_bool_s, %struct.zend_atomic_bool_s, ptr, i64, ptr, ptr, %struct._zend_array, %struct._zend_array, i32, i8, %struct._zval_struct, %struct._zval_struct, %struct._zend_stack, %struct._zend_stack, %struct._zend_stack, ptr, i32, i32, i64, ptr, ptr, ptr, %struct._zend_objects_store, %struct._zend_lazy_objects_store, ptr, ptr, ptr, [3 x %struct._zend_op], ptr, i8, i8, i64, i32, i32, ptr, [16 x %struct._HashTableIterator], ptr, %union._zend_function, %struct._zend_op, %struct._zend_array, i64, %struct.zend_get_gc_buffer, ptr, ptr, ptr, i64, i8, i32, ptr, ptr, i64, %struct._zend_call_stack, i64, i64, %struct._zend_strtod_state, [6 x ptr] }
%struct.zend_atomic_bool_s = type { i8 }
%struct._zval_struct = type { %union._zend_value, %union.anon, %union.anon.2 }
%union._zend_value = type { i64 }
%union.anon = type { i32 }
%union.anon.2 = type { i32 }
%struct._zend_stack = type { i32, i32, i32, ptr }
%struct._zend_objects_store = type { ptr, i32, i32, i32 }
%struct._zend_lazy_objects_store = type { %struct._zend_array }
%struct._HashTableIterator = type { ptr, i32, i32 }
%union._zend_function = type { %struct._zend_op_array }
%struct._zend_op_array = type { i8, [3 x i8], i32, ptr, ptr, ptr, i32, i32, ptr, ptr, ptr, ptr, i32, ptr, i32, i32, i32, ptr, ptr, ptr, ptr, ptr, i32, i32, ptr, ptr, ptr, i32, i32, i32, i32, ptr, ptr, [6 x ptr] }
%struct._zend_op = type { ptr, %union._znode_op, %union._znode_op, %union._znode_op, i32, i32, i8, i8, i8, i8 }
%union._znode_op = type { i32 }
%struct._zend_array = type { %struct._zend_refcounted_h, %union.anon.4, i32, %union.anon.6, i32, i32, i32, i32, i64, ptr }
%struct._zend_refcounted_h = type { i32, %union.anon.3 }
%union.anon.3 = type { i32 }
%union.anon.4 = type { i32 }
%union.anon.6 = type { ptr }
%struct.zend_get_gc_buffer = type { ptr, ptr, ptr }
%struct._zend_call_stack = type { ptr, i64 }
%struct._zend_strtod_state = type { [8 x ptr], ptr, ptr }
%struct._zend_execute_data = type { ptr, ptr, ptr, ptr, %struct._zval_struct, ptr, ptr, ptr, ptr }
%struct.anon.0 = type { i8, i8, %union.anon.1 }
%union.anon.1 = type { i16 }

@executor_globals = external global %struct._zend_executor_globals, align 8

; Function Attrs: alwaysinline nounwind uwtable
define internal zeroext i8 @zval_get_type(ptr noundef %0) #5 {
  %2 = alloca ptr, align 8
  store ptr %0, ptr %2, align 8, !tbaa !67
  %3 = load ptr, ptr %2, align 8, !tbaa !67
  %4 = getelementptr inbounds nuw %struct._zval_struct, ptr %3, i32 0, i32 1
  %5 = getelementptr inbounds nuw %struct.anon.0, ptr %4, i32 0, i32 0
  %6 = load i8, ptr %5, align 8, !tbaa !31
  ret i8 %6
}

; Function Attrs: nounwind uwtable
define hidden void @zif_restore_exception_handler(ptr noundef %0, ptr noundef %1) #0 {
  %3 = alloca ptr, align 8
  %4 = alloca ptr, align 8
  %5 = alloca ptr, align 8
  %6 = alloca ptr, align 8
  %7 = alloca ptr, align 8
  %8 = alloca ptr, align 8
  %9 = alloca i32, align 4
  store ptr %0, ptr %3, align 8, !tbaa !66
  store ptr %1, ptr %4, align 8, !tbaa !67
  br label %10

10:                                               ; preds = %2
  %11 = load ptr, ptr %3, align 8, !tbaa !66
  %12 = getelementptr inbounds nuw %struct._zend_execute_data, ptr %11, i32 0, i32 4
  %13 = getelementptr inbounds nuw %struct._zval_struct, ptr %12, i32 0, i32 2
  %14 = load i32, ptr %13, align 4, !tbaa !31
  %15 = icmp ne i32 %14, 0
  %16 = xor i1 %15, true
  %17 = xor i1 %16, true
  %18 = zext i1 %17 to i32
  %19 = sext i32 %18 to i64
  %20 = call i64 @llvm.expect.i64(i64 %19, i64 0)
  %21 = icmp ne i64 %20, 0
  br i1 %21, label %22, label %23

22:                                               ; preds = %10
  call void @zend_wrong_parameters_none_error()
  br label %61

23:                                               ; preds = %10
  br label %24

24:                                               ; preds = %23
  %25 = call zeroext i8 @zval_get_type(ptr noundef getelementptr inbounds nuw (%struct._zend_executor_globals, ptr @executor_globals, i32 0, i32 41))
  %26 = zext i8 %25 to i32
  %27 = icmp ne i32 %26, 0
  br i1 %27, label %28, label %29

28:                                               ; preds = %24
  call void @zval_ptr_dtor(ptr noundef getelementptr inbounds nuw (%struct._zend_executor_globals, ptr @executor_globals, i32 0, i32 41))
  br label %29

29:                                               ; preds = %28, %24
  %30 = call zeroext i1 @zend_stack_is_empty(ptr noundef getelementptr inbounds nuw (%struct._zend_executor_globals, ptr @executor_globals, i32 0, i32 44))
  br i1 %30, label %31, label %34

31:                                               ; preds = %29
  br label %32

32:                                               ; preds = %31
  store i32 0, ptr getelementptr inbounds nuw (%struct._zval_struct, ptr getelementptr inbounds nuw (%struct._zend_executor_globals, ptr @executor_globals, i32 0, i32 41), i32 0, i32 1), align 8, !tbaa !31
  br label %33

33:                                               ; preds = %32
  br label %55

34:                                               ; preds = %29
  call void @llvm.lifetime.start.p0(i64 8, ptr %5) #14
  %35 = call ptr @zend_stack_top(ptr noundef getelementptr inbounds nuw (%struct._zend_executor_globals, ptr @executor_globals, i32 0, i32 44))
  store ptr %35, ptr %5, align 8, !tbaa !67
  br label %36

36:                                               ; preds = %34
  call void @llvm.lifetime.start.p0(i64 8, ptr %6) #14
  store ptr getelementptr inbounds nuw (%struct._zend_executor_globals, ptr @executor_globals, i32 0, i32 41), ptr %6, align 8, !tbaa !67
  call void @llvm.lifetime.start.p0(i64 8, ptr %7) #14
  %37 = load ptr, ptr %5, align 8, !tbaa !67
  store ptr %37, ptr %7, align 8, !tbaa !67
  call void @llvm.lifetime.start.p0(i64 8, ptr %8) #14
  %38 = load ptr, ptr %7, align 8, !tbaa !67
  %39 = getelementptr inbounds nuw %struct._zval_struct, ptr %38, i32 0, i32 0
  %40 = load ptr, ptr %39, align 8, !tbaa !31
  store ptr %40, ptr %8, align 8, !tbaa !101
  call void @llvm.lifetime.start.p0(i64 4, ptr %9) #14
  %41 = load ptr, ptr %7, align 8, !tbaa !67
  %42 = getelementptr inbounds nuw %struct._zval_struct, ptr %41, i32 0, i32 1
  %43 = load i32, ptr %42, align 8, !tbaa !31
  store i32 %43, ptr %9, align 4, !tbaa !4
  br label %44

44:                                               ; preds = %36
  %45 = load ptr, ptr %8, align 8, !tbaa !101
  %46 = load ptr, ptr %6, align 8, !tbaa !67
  %47 = getelementptr inbounds nuw %struct._zval_struct, ptr %46, i32 0, i32 0
  store ptr %45, ptr %47, align 8, !tbaa !31
  %48 = load i32, ptr %9, align 4, !tbaa !4
  %49 = load ptr, ptr %6, align 8, !tbaa !67
  %50 = getelementptr inbounds nuw %struct._zval_struct, ptr %49, i32 0, i32 1
  store i32 %48, ptr %50, align 8, !tbaa !31
  br label %51

51:                                               ; preds = %44
  br label %52

52:                                               ; preds = %51
  call void @llvm.lifetime.end.p0(i64 4, ptr %9) #14
  call void @llvm.lifetime.end.p0(i64 8, ptr %8) #14
  call void @llvm.lifetime.end.p0(i64 8, ptr %7) #14
  call void @llvm.lifetime.end.p0(i64 8, ptr %6) #14
  br label %53

53:                                               ; preds = %52
  br label %54

54:                                               ; preds = %53
  call void @zend_stack_del_top(ptr noundef getelementptr inbounds nuw (%struct._zend_executor_globals, ptr @executor_globals, i32 0, i32 44))
  call void @llvm.lifetime.end.p0(i64 8, ptr %5) #14
  br label %55

55:                                               ; preds = %54, %33
  br label %56

56:                                               ; preds = %55
  br label %57

57:                                               ; preds = %56
  %58 = load ptr, ptr %4, align 8, !tbaa !67
  %59 = getelementptr inbounds nuw %struct._zval_struct, ptr %58, i32 0, i32 1
  store i32 3, ptr %59, align 8, !tbaa !31
  br label %60

60:                                               ; preds = %57
  br label %61

61:                                               ; preds = %22, %60
  ret void
}