; Function Attrs: nounwind uwtable
define hidden void @zif_restore_exception_handler(ptr noundef readonly captures(none) %0, ptr noundef writeonly captures(none) %1) #0 {
  %3 = getelementptr inbounds nuw i8, ptr %0, i64 44
  %4 = load i32, ptr %3, align 4, !tbaa !28
  %.not = icmp eq i32 %4, 0
  br i1 %.not, label %6, label %5, !prof !69

5:                                                ; preds = %2
  tail call void @zend_wrong_parameters_none_error() #14
  br label %19

6:                                                ; preds = %2
  %7 = load i8, ptr getelementptr inbounds nuw (i8, ptr @executor_globals, i64 752), align 8, !tbaa !28
  %.not8 = icmp eq i8 %7, 0
  br i1 %.not8, label %9, label %8

8:                                                ; preds = %6
  tail call void @zval_ptr_dtor(ptr noundef nonnull getelementptr inbounds nuw (i8, ptr @executor_globals, i64 744)) #14
  br label %9

9:                                                ; preds = %8, %6
  %10 = tail call zeroext i1 @zend_stack_is_empty(ptr noundef nonnull getelementptr inbounds nuw (i8, ptr @executor_globals, i64 808)) #14
  br i1 %10, label %11, label %12

11:                                               ; preds = %9
  store i32 0, ptr getelementptr inbounds nuw (i8, ptr @executor_globals, i64 752), align 8, !tbaa !28
  br label %17

12:                                               ; preds = %9
  %13 = tail call ptr @zend_stack_top(ptr noundef nonnull getelementptr inbounds nuw (i8, ptr @executor_globals, i64 808)) #14
  %14 = load ptr, ptr %13, align 8, !tbaa !28
  %15 = getelementptr inbounds nuw i8, ptr %13, i64 8
  %16 = load i32, ptr %15, align 8, !tbaa !28
  store ptr %14, ptr getelementptr inbounds nuw (i8, ptr @executor_globals, i64 744), align 8, !tbaa !28
  store i32 %16, ptr getelementptr inbounds nuw (i8, ptr @executor_globals, i64 752), align 8, !tbaa !28
  tail call void @zend_stack_del_top(ptr noundef nonnull getelementptr inbounds nuw (i8, ptr @executor_globals, i64 808)) #14
  br label %17

17:                                               ; preds = %12, %11
  %18 = getelementptr inbounds nuw i8, ptr %1, i64 8
  store i32 3, ptr %18, align 8, !tbaa !28
  br label %19

19:                                               ; preds = %17, %5
  ret void
}